target datalayout = "e-m:e-p270:32:32-p271:32:32-p272:64:64-i64:64-i128:128-f80:128-n8:16:32:64-S128"
target triple = "x86_64-pc-linux-gnu"

%"class.colvarmodule::rvector" = type { double, double, double }
%"class.colvarmodule::quaternion" = type { double, double, double, double }
%"class.colvarmodule::rotation" = type { %"class.colvarmodule::rmatrix", [4 x [4 x double]], [4 x double], [4 x [4 x double]], [4 x [4 x double]], i8, %"class.colvarmodule::quaternion", %"class.colvarmodule::quaternion", ptr }
%"class.colvarmodule::rmatrix" = type { double, double, double, double, double, double, double, double, double }
%"struct.std::_Vector_base.41" = type { %"struct.std::_Vector_base<colvarmodule::rvector, std::allocator<colvarmodule::rvector>>::_Vector_impl" }
%"struct.std::_Vector_base<colvarmodule::rvector, std::allocator<colvarmodule::rvector>>::_Vector_impl" = type { %"struct.std::_Vector_base<colvarmodule::rvector, std::allocator<colvarmodule::rvector>>::_Vector_impl_data" }
%"struct.std::_Vector_base<colvarmodule::rvector, std::allocator<colvarmodule::rvector>>::_Vector_impl_data" = type { ptr, ptr, ptr }
%"class.colvarmodule::atom" = type { i32, i32, double, double, %"class.colvarmodule::rvector", %"class.colvarmodule::rvector", %"class.colvarmodule::rvector", %"class.colvarmodule::rvector" }
%"struct.std::_Vector_base.46" = type { %"struct.std::_Vector_base<colvarmodule::atom, std::allocator<colvarmodule::atom>>::_Vector_impl" }
%"struct.std::_Vector_base<colvarmodule::atom, std::allocator<colvarmodule::atom>>::_Vector_impl" = type { %"struct.std::_Vector_base<colvarmodule::atom, std::allocator<colvarmodule::atom>>::_Vector_impl_data" }
%"struct.std::_Vector_base<colvarmodule::atom, std::allocator<colvarmodule::atom>>::_Vector_impl_data" = type { ptr, ptr, ptr }

; Function Attrs: mustprogress nounwind uwtable
define linkonce_odr noundef nonnull align 8 dereferenceable(24) ptr @_ZNKSt6vectorIN12colvarmodule7rvectorESaIS1_EEixEm(ptr noundef nonnull align 8 dereferenceable(24) %0, i64 noundef %1) #2 comdat align 2 {
  %3 = alloca ptr, align 8
  %4 = alloca i64, align 8
  store ptr %0, ptr %3, align 8, !tbaa !146
  store i64 %1, ptr %4, align 8, !tbaa !11
  %5 = load ptr, ptr %3, align 8
  %6 = getelementptr inbounds nuw %"struct.std::_Vector_base.41", ptr %5, i32 0, i32 0
  %7 = getelementptr inbounds nuw %"struct.std::_Vector_base<colvarmodule::rvector, std::allocator<colvarmodule::rvector>>::_Vector_impl_data", ptr %6, i32 0, i32 0
  %8 = load ptr, ptr %7, align 8, !tbaa !161
  %9 = load i64, ptr %4, align 8, !tbaa !11
  %10 = getelementptr inbounds nuw %"class.colvarmodule::rvector", ptr %8, i64 %9
  ret ptr %10
}

; Function Attrs: mustprogress nounwind uwtable
define linkonce_odr noundef nonnull align 8 dereferenceable(120) ptr @_ZNKSt6vectorIN12colvarmodule4atomESaIS1_EEixEm(ptr noundef nonnull align 8 dereferenceable(24) %0, i64 noundef %1) #2 comdat align 2 {
  %3 = alloca ptr, align 8
  %4 = alloca i64, align 8
  store ptr %0, ptr %3, align 8, !tbaa !162
  store i64 %1, ptr %4, align 8, !tbaa !11
  %5 = load ptr, ptr %3, align 8
  %6 = getelementptr inbounds nuw %"struct.std::_Vector_base.46", ptr %5, i32 0, i32 0
  %7 = getelementptr inbounds nuw %"struct.std::_Vector_base<colvarmodule::atom, std::allocator<colvarmodule::atom>>::_Vector_impl_data", ptr %6, i32 0, i32 0
  %8 = load ptr, ptr %7, align 8, !tbaa !172
  %9 = load i64, ptr %4, align 8, !tbaa !11
  %10 = getelementptr inbounds nuw %"class.colvarmodule::atom", ptr %8, i64 %9
  ret ptr %10
}

; Function Attrs: mustprogress nounwind uwtable
define linkonce_odr noundef i64 @_ZNKSt6vectorIN12colvarmodule4atomESaIS1_EE4sizeEv(ptr noundef nonnull align 8 dereferenceable(24) %0) #2 comdat align 2 {
  %2 = alloca ptr, align 8
  store ptr %0, ptr %2, align 8, !tbaa !162
  %3 = load ptr, ptr %2, align 8
  %4 = getelementptr inbounds nuw %"struct.std::_Vector_base.46", ptr %3, i32 0, i32 0
  %5 = getelementptr inbounds nuw %"struct.std::_Vector_base<colvarmodule::atom, std::allocator<colvarmodule::atom>>::_Vector_impl_data", ptr %4, i32 0, i32 1
  %6 = load ptr, ptr %5, align 8, !tbaa !169
  %7 = getelementptr inbounds nuw %"struct.std::_Vector_base.46", ptr %3, i32 0, i32 0
  %8 = getelementptr inbounds nuw %"struct.std::_Vector_base<colvarmodule::atom, std::allocator<colvarmodule::atom>>::_Vector_impl_data", ptr %7, i32 0, i32 0
  %9 = load ptr, ptr %8, align 8, !tbaa !172
  %10 = ptrtoint ptr %6 to i64
  %11 = ptrtoint ptr %9 to i64
  %12 = sub i64 %10, %11
  %13 = sdiv exact i64 %12, 120
  ret i64 %13
}

; Function Attrs: mustprogress nounwind uwtable
define void @_ZN12colvarmodule8rotation24build_correlation_matrixERKSt6vectorINS_4atomESaIS2_EERKS1_INS_7rvectorESaIS7_EE(ptr noundef nonnull align 8 dereferenceable(568) %0, ptr noundef nonnull align 8 dereferenceable(24) %1, ptr noundef nonnull align 8 dereferenceable(24) %2) #2 align 2 {
  %4 = alloca ptr, align 8
  %5 = alloca ptr, align 8
  %6 = alloca ptr, align 8
  %7 = alloca i64, align 8
  store ptr %0, ptr %4, align 8, !tbaa !127
  store ptr %1, ptr %5, align 8, !tbaa !162
  store ptr %2, ptr %6, align 8, !tbaa !146
  %8 = load ptr, ptr %4, align 8
  call void @llvm.lifetime.start.p0(i64 8, ptr %7) #16
  store i64 0, ptr %7, align 8, !tbaa !11
  br label %9

9:                                                ; preds = %150, %3
  %10 = load i64, ptr %7, align 8, !tbaa !11
  %11 = load ptr, ptr %5, align 8, !tbaa !162
  %12 = call noundef i64 @_ZNKSt6vectorIN12colvarmodule4atomESaIS1_EE4sizeEv(ptr noundef nonnull align 8 dereferenceable(24) %11) #16
  %13 = icmp ult i64 %10, %12
  br i1 %13, label %14, label %153

14:                                               ; preds = %9
  %15 = load ptr, ptr %5, align 8, !tbaa !162
  %16 = load i64, ptr %7, align 8, !tbaa !11
  %17 = call noundef nonnull align 8 dereferenceable(120) ptr @_ZNKSt6vectorIN12colvarmodule4atomESaIS1_EEixEm(ptr noundef nonnull align 8 dereferenceable(24) %15, i64 noundef %16) #16
  %18 = getelementptr inbounds nuw %"class.colvarmodule::atom", ptr %17, i32 0, i32 4
  %19 = getelementptr inbounds nuw %"class.colvarmodule::rvector", ptr %18, i32 0, i32 0
  %20 = load double, ptr %19, align 8, !tbaa !164
  %21 = load ptr, ptr %6, align 8, !tbaa !146
  %22 = load i64, ptr %7, align 8, !tbaa !11
  %23 = call noundef nonnull align 8 dereferenceable(24) ptr @_ZNKSt6vectorIN12colvarmodule7rvectorESaIS1_EEixEm(ptr noundef nonnull align 8 dereferenceable(24) %21, i64 noundef %22) #16
  %24 = getelementptr inbounds nuw %"class.colvarmodule::rvector", ptr %23, i32 0, i32 0
  %25 = load double, ptr %24, align 8, !tbaa !13
  %26 = getelementptr inbounds nuw %"class.colvarmodule::rotation", ptr %8, i32 0, i32 0
  %27 = getelementptr inbounds nuw %"class.colvarmodule::rmatrix", ptr %26, i32 0, i32 0
  %28 = load double, ptr %27, align 8, !tbaa !148
  %29 = call double @llvm.fmuladd.f64(double %20, double %25, double %28)
  store double %29, ptr %27, align 8, !tbaa !148
  %30 = load ptr, ptr %5, align 8, !tbaa !162
  %31 = load i64, ptr %7, align 8, !tbaa !11
  %32 = call noundef nonnull align 8 dereferenceable(120) ptr @_ZNKSt6vectorIN12colvarmodule4atomESaIS1_EEixEm(ptr noundef nonnull align 8 dereferenceable(24) %30, i64 noundef %31) #16
  %33 = getelementptr inbounds nuw %"class.colvarmodule::atom", ptr %32, i32 0, i32 4
  %34 = getelementptr inbounds nuw %"class.colvarmodule::rvector", ptr %33, i32 0, i32 0
  %35 = load double, ptr %34, align 8, !tbaa !164
  %36 = load ptr, ptr %6, align 8, !tbaa !146
  %37 = load i64, ptr %7, align 8, !tbaa !11
  %38 = call noundef nonnull align 8 dereferenceable(24) ptr @_ZNKSt6vectorIN12colvarmodule7rvectorESaIS1_EEixEm(ptr noundef nonnull align 8 dereferenceable(24) %36, i64 noundef %37) #16
  %39 = getelementptr inbounds nuw %"class.colvarmodule::rvector", ptr %38, i32 0, i32 1
  %40 = load double, ptr %39, align 8, !tbaa !16
  %41 = getelementptr inbounds nuw %"class.colvarmodule::rotation", ptr %8, i32 0, i32 0
  %42 = getelementptr inbounds nuw %"class.colvarmodule::rmatrix", ptr %41, i32 0, i32 1
  %43 = load double, ptr %42, align 8, !tbaa !149
  %44 = call double @llvm.fmuladd.f64(double %35, double %40, double %43)
  store double %44, ptr %42, align 8, !tbaa !149
  %45 = load ptr, ptr %5, align 8, !tbaa !162
  %46 = load i64, ptr %7, align 8, !tbaa !11
  %47 = call noundef nonnull align 8 dereferenceable(120) ptr @_ZNKSt6vectorIN12colvarmodule4atomESaIS1_EEixEm(ptr noundef nonnull align 8 dereferenceable(24) %45, i64 noundef %46) #16
  %48 = getelementptr inbounds nuw %"class.colvarmodule::atom", ptr %47, i32 0, i32 4
  %49 = getelementptr inbounds nuw %"class.colvarmodule::rvector", ptr %48, i32 0, i32 0
  %50 = load double, ptr %49, align 8, !tbaa !164
  %51 = load ptr, ptr %6, align 8, !tbaa !146
  %52 = load i64, ptr %7, align 8, !tbaa !11
  %53 = call noundef nonnull align 8 dereferenceable(24) ptr @_ZNKSt6vectorIN12colvarmodule7rvectorESaIS1_EEixEm(ptr noundef nonnull align 8 dereferenceable(24) %51, i64 noundef %52) #16
  %54 = getelementptr inbounds nuw %"class.colvarmodule::rvector", ptr %53, i32 0, i32 2
  %55 = load double, ptr %54, align 8, !tbaa !17
  %56 = getelementptr inbounds nuw %"class.colvarmodule::rotation", ptr %8, i32 0, i32 0
  %57 = getelementptr inbounds nuw %"class.colvarmodule::rmatrix", ptr %56, i32 0, i32 2
  %58 = load double, ptr %57, align 8, !tbaa !150
  %59 = call double @llvm.fmuladd.f64(double %50, double %55, double %58)
  store double %59, ptr %57, align 8, !tbaa !150
  %60 = load ptr, ptr %5, align 8, !tbaa !162
  %61 = load i64, ptr %7, align 8, !tbaa !11
  %62 = call noundef nonnull align 8 dereferenceable(120) ptr @_ZNKSt6vectorIN12colvarmodule4atomESaIS1_EEixEm(ptr noundef nonnull align 8 dereferenceable(24) %60, i64 noundef %61) #16
  %63 = getelementptr inbounds nuw %"class.colvarmodule::atom", ptr %62, i32 0, i32 4
  %64 = getelementptr inbounds nuw %"class.colvarmodule::rvector", ptr %63, i32 0, i32 1
  %65 = load double, ptr %64, align 8, !tbaa !166
  %66 = load ptr, ptr %6, align 8, !tbaa !146
  %67 = load i64, ptr %7, align 8, !tbaa !11
  %68 = call noundef nonnull align 8 dereferenceable(24) ptr @_ZNKSt6vectorIN12colvarmodule7rvectorESaIS1_EEixEm(ptr noundef nonnull align 8 dereferenceable(24) %66, i64 noundef %67) #16
  %69 = getelementptr inbounds nuw %"class.colvarmodule::rvector", ptr %68, i32 0, i32 0
  %70 = load double, ptr %69, align 8, !tbaa !13
  %71 = getelementptr inbounds nuw %"class.colvarmodule::rotation", ptr %8, i32 0, i32 0
  %72 = getelementptr inbounds nuw %"class.colvarmodule::rmatrix", ptr %71, i32 0, i32 3
  %73 = load double, ptr %72, align 8, !tbaa !151
  %74 = call double @llvm.fmuladd.f64(double %65, double %70, double %73)
  store double %74, ptr %72, align 8, !tbaa !151
  %75 = load ptr, ptr %5, align 8, !tbaa !162
  %76 = load i64, ptr %7, align 8, !tbaa !11
  %77 = call noundef nonnull align 8 dereferenceable(120) ptr @_ZNKSt6vectorIN12colvarmodule4atomESaIS1_EEixEm(ptr noundef nonnull align 8 dereferenceable(24) %75, i64 noundef %76) #16
  %78 = getelementptr inbounds nuw %"class.colvarmodule::atom", ptr %77, i32 0, i32 4
  %79 = getelementptr inbounds nuw %"class.colvarmodule::rvector", ptr %78, i32 0, i32 1
  %80 = load double, ptr %79, align 8, !tbaa !166
  %81 = load ptr, ptr %6, align 8, !tbaa !146
  %82 = load i64, ptr %7, align 8, !tbaa !11
  %83 = call noundef nonnull align 8 dereferenceable(24) ptr @_ZNKSt6vectorIN12colvarmodule7rvectorESaIS1_EEixEm(ptr noundef nonnull align 8 dereferenceable(24) %81, i64 noundef %82) #16
  %84 = getelementptr inbounds nuw %"class.colvarmodule::rvector", ptr %83, i32 0, i32 1
  %85 = load double, ptr %84, align 8, !tbaa !16
  %86 = getelementptr inbounds nuw %"class.colvarmodule::rotation", ptr %8, i32 0, i32 0
  %87 = getelementptr inbounds nuw %"class.colvarmodule::rmatrix", ptr %86, i32 0, i32 4
  %88 = load double, ptr %87, align 8, !tbaa !152
  %89 = call double @llvm.fmuladd.f64(double %80, double %85, double %88)
  store double %89, ptr %87, align 8, !tbaa !152
  %90 = load ptr, ptr %5, align 8, !tbaa !162
  %91 = load i64, ptr %7, align 8, !tbaa !11
  %92 = call noundef nonnull align 8 dereferenceable(120) ptr @_ZNKSt6vectorIN12colvarmodule4atomESaIS1_EEixEm(ptr noundef nonnull align 8 dereferenceable(24) %90, i64 noundef %91) #16
  %93 = getelementptr inbounds nuw %"class.colvarmodule::atom", ptr %92, i32 0, i32 4
  %94 = getelementptr inbounds nuw %"class.colvarmodule::rvector", ptr %93, i32 0, i32 1
  %95 = load double, ptr %94, align 8, !tbaa !166
  %96 = load ptr, ptr %6, align 8, !tbaa !146
  %97 = load i64, ptr %7, align 8, !tbaa !11
  %98 = call noundef nonnull align 8 dereferenceable(24) ptr @_ZNKSt6vectorIN12colvarmodule7rvectorESaIS1_EEixEm(ptr noundef nonnull align 8 dereferenceable(24) %96, i64 noundef %97) #16
  %99 = getelementptr inbounds nuw %"class.colvarmodule::rvector", ptr %98, i32 0, i32 2
  %100 = load double, ptr %99, align 8, !tbaa !17
  %101 = getelementptr inbounds nuw %"class.colvarmodule::rotation", ptr %8, i32 0, i32 0
  %102 = getelementptr inbounds nuw %"class.colvarmodule::rmatrix", ptr %101, i32 0, i32 5
  %103 = load double, ptr %102, align 8, !tbaa !153
  %104 = call double @llvm.fmuladd.f64(double %95, double %100, double %103)
  store double %104, ptr %102, align 8, !tbaa !153
  %105 = load ptr, ptr %5, align 8, !tbaa !162
  %106 = load i64, ptr %7, align 8, !tbaa !11
  %107 = call noundef nonnull align 8 dereferenceable(120) ptr @_ZNKSt6vectorIN12colvarmodule4atomESaIS1_EEixEm(ptr noundef nonnull align 8 dereferenceable(24) %105, i64 noundef %106) #16
  %108 = getelementptr inbounds nuw %"class.colvarmodule::atom", ptr %107, i32 0, i32 4
  %109 = getelementptr inbounds nuw %"class.colvarmodule::rvector", ptr %108, i32 0, i32 2
  %110 = load double, ptr %109, align 8, !tbaa !167
  %111 = load ptr, ptr %6, align 8, !tbaa !146
  %112 = load i64, ptr %7, align 8, !tbaa !11
  %113 = call noundef nonnull align 8 dereferenceable(24) ptr @_ZNKSt6vectorIN12colvarmodule7rvectorESaIS1_EEixEm(ptr noundef nonnull align 8 dereferenceable(24) %111, i64 noundef %112) #16
  %114 = getelementptr inbounds nuw %"class.colvarmodule::rvector", ptr %113, i32 0, i32 0
  %115 = load double, ptr %114, align 8, !tbaa !13
  %116 = getelementptr inbounds nuw %"class.colvarmodule::rotation", ptr %8, i32 0, i32 0
  %117 = getelementptr inbounds nuw %"class.colvarmodule::rmatrix", ptr %116, i32 0, i32 6
  %118 = load double, ptr %117, align 8, !tbaa !154
  %119 = call double @llvm.fmuladd.f64(double %110, double %115, double %118)
  store double %119, ptr %117, align 8, !tbaa !154
  %120 = load ptr, ptr %5, align 8, !tbaa !162
  %121 = load i64, ptr %7, align 8, !tbaa !11
  %122 = call noundef nonnull align 8 dereferenceable(120) ptr @_ZNKSt6vectorIN12colvarmodule4atomESaIS1_EEixEm(ptr noundef nonnull align 8 dereferenceable(24) %120, i64 noundef %121) #16
  %123 = getelementptr inbounds nuw %"class.colvarmodule::atom", ptr %122, i32 0, i32 4
  %124 = getelementptr inbounds nuw %"class.colvarmodule::rvector", ptr %123, i32 0, i32 2
  %125 = load double, ptr %124, align 8, !tbaa !167
  %126 = load ptr, ptr %6, align 8, !tbaa !146
  %127 = load i64, ptr %7, align 8, !tbaa !11
  %128 = call noundef nonnull align 8 dereferenceable(24) ptr @_ZNKSt6vectorIN12colvarmodule7rvectorESaIS1_EEixEm(ptr noundef nonnull align 8 dereferenceable(24) %126, i64 noundef %127) #16
  %129 = getelementptr inbounds nuw %"class.colvarmodule::rvector", ptr %128, i32 0, i32 1
  %130 = load double, ptr %129, align 8, !tbaa !16
  %131 = getelementptr inbounds nuw %"class.colvarmodule::rotation", ptr %8, i32 0, i32 0
  %132 = getelementptr inbounds nuw %"class.colvarmodule::rmatrix", ptr %131, i32 0, i32 7
  %133 = load double, ptr %132, align 8, !tbaa !155
  %134 = call double @llvm.fmuladd.f64(double %125, double %130, double %133)
  store double %134, ptr %132, align 8, !tbaa !155
  %135 = load ptr, ptr %5, align 8, !tbaa !162
  %136 = load i64, ptr %7, align 8, !tbaa !11
  %137 = call noundef nonnull align 8 dereferenceable(120) ptr @_ZNKSt6vectorIN12colvarmodule4atomESaIS1_EEixEm(ptr noundef nonnull align 8 dereferenceable(24) %135, i64 noundef %136) #16
  %138 = getelementptr inbounds nuw %"class.colvarmodule::atom", ptr %137, i32 0, i32 4
  %139 = getelementptr inbounds nuw %"class.colvarmodule::rvector", ptr %138, i32 0, i32 2
  %140 = load double, ptr %139, align 8, !tbaa !167
  %141 = load ptr, ptr %6, align 8, !tbaa !146
  %142 = load i64, ptr %7, align 8, !tbaa !11
  %143 = call noundef nonnull align 8 dereferenceable(24) ptr @_ZNKSt6vectorIN12colvarmodule7rvectorESaIS1_EEixEm(ptr noundef nonnull align 8 dereferenceable(24) %141, i64 noundef %142) #16
  %144 = getelementptr inbounds nuw %"class.colvarmodule::rvector", ptr %143, i32 0, i32 2
  %145 = load double, ptr %144, align 8, !tbaa !17
  %146 = getelementptr inbounds nuw %"class.colvarmodule::rotation", ptr %8, i32 0, i32 0
  %147 = getelementptr inbounds nuw %"class.colvarmodule::rmatrix", ptr %146, i32 0, i32 8
  %148 = load double, ptr %147, align 8, !tbaa !156
  %149 = call double @llvm.fmuladd.f64(double %140, double %145, double %148)
  store double %149, ptr %147, align 8, !tbaa !156
  br label %150

150:                                              ; preds = %14
  %151 = load i64, ptr %7, align 8, !tbaa !11
  %152 = add i64 %151, 1
  store i64 %152, ptr %7, align 8, !tbaa !11
  br label %9, !llvm.loop !168

153:                                              ; preds = %9
  call void @llvm.lifetime.end.p0(i64 8, ptr %7) #16
  ret void
}

; Function Attrs: inlinehint mustprogress nounwind uwtable
define linkonce_odr void @_ZN12colvarmodule7rmatrix5resetEv(ptr noundef nonnull align 8 dereferenceable(72) %0) #5 comdat align 2 {
  %2 = alloca ptr, align 8
  store ptr %0, ptr %2, align 8, !tbaa !133
  %3 = load ptr, ptr %2, align 8
  %4 = getelementptr inbounds nuw %"class.colvarmodule::rmatrix", ptr %3, i32 0, i32 8
  store double 0.000000e+00, ptr %4, align 8, !tbaa !135
  %5 = getelementptr inbounds nuw %"class.colvarmodule::rmatrix", ptr %3, i32 0, i32 7
  store double 0.000000e+00, ptr %5, align 8, !tbaa !136
  %6 = getelementptr inbounds nuw %"class.colvarmodule::rmatrix", ptr %3, i32 0, i32 6
  store double 0.000000e+00, ptr %6, align 8, !tbaa !137
  %7 = getelementptr inbounds nuw %"class.colvarmodule::rmatrix", ptr %3, i32 0, i32 5
  store double 0.000000e+00, ptr %7, align 8, !tbaa !138
  %8 = getelementptr inbounds nuw %"class.colvarmodule::rmatrix", ptr %3, i32 0, i32 4
  store double 0.000000e+00, ptr %8, align 8, !tbaa !139
  %9 = getelementptr inbounds nuw %"class.colvarmodule::rmatrix", ptr %3, i32 0, i32 3
  store double 0.000000e+00, ptr %9, align 8, !tbaa !140
  %10 = getelementptr inbounds nuw %"class.colvarmodule::rmatrix", ptr %3, i32 0, i32 2
  store double 0.000000e+00, ptr %10, align 8, !tbaa !141
  %11 = getelementptr inbounds nuw %"class.colvarmodule::rmatrix", ptr %3, i32 0, i32 1
  store double 0.000000e+00, ptr %11, align 8, !tbaa !142
  %12 = getelementptr inbounds nuw %"class.colvarmodule::rmatrix", ptr %3, i32 0, i32 0
  store double 0.000000e+00, ptr %12, align 8, !tbaa !143
  ret void
}

; Function Attrs: mustprogress uwtable
define void @_ZN12colvarmodule8rotation21calc_optimal_rotationERKSt6vectorINS_4atomESaIS2_EERKS1_INS_7rvectorESaIS7_EE(ptr noundef nonnull align 8 dereferenceable(568) %0, ptr noundef nonnull align 8 dereferenceable(24) %1, ptr noundef nonnull align 8 dereferenceable(24) %2) #0 align 2 {
  %4 = alloca ptr, align 8
  %5 = alloca ptr, align 8
  %6 = alloca ptr, align 8
  store ptr %0, ptr %4, align 8, !tbaa !127
  store ptr %1, ptr %5, align 8, !tbaa !162
  store ptr %2, ptr %6, align 8, !tbaa !146
  %7 = load ptr, ptr %4, align 8
  %8 = getelementptr inbounds nuw %"class.colvarmodule::rotation", ptr %7, i32 0, i32 0
  call void @_ZN12colvarmodule7rmatrix5resetEv(ptr noundef nonnull align 8 dereferenceable(72) %8)
  %9 = load ptr, ptr %5, align 8, !tbaa !162
  %10 = load ptr, ptr %6, align 8, !tbaa !146
  call void @_ZN12colvarmodule8rotation24build_correlation_matrixERKSt6vectorINS_4atomESaIS2_EERKS1_INS_7rvectorESaIS7_EE(ptr noundef nonnull align 8 dereferenceable(568) %7, ptr noundef nonnull align 8 dereferenceable(24) %9, ptr noundef nonnull align 8 dereferenceable(24) %10)
  call void @_ZN12colvarmodule8rotation26calc_optimal_rotation_implEv(ptr noundef nonnull align 8 dereferenceable(568) %7)
  %11 = getelementptr inbounds nuw %"class.colvarmodule::rotation", ptr %7, i32 0, i32 5
  %12 = load i8, ptr %11, align 8, !tbaa !129, !range !94, !noundef !95
  %13 = trunc i8 %12 to i1
  br i1 %13, label %14, label %17

14:                                               ; preds = %3
  %15 = load ptr, ptr %5, align 8, !tbaa !162
  %16 = load ptr, ptr %6, align 8, !tbaa !146
  call void @_Z15debug_gradientsIN12colvarmodule4atomENS0_7rvectorEEvRNS0_8rotationERKSt6vectorIT_SaIS6_EERKS5_IT0_SaISB_EE(ptr noundef nonnull align 8 dereferenceable(568) %7, ptr noundef nonnull align 8 dereferenceable(24) %15, ptr noundef nonnull align 8 dereferenceable(24) %16)
  br label %17

17:                                               ; preds = %14, %3
  ret void
}