; Function Attrs: mustprogress uwtable
define void @_ZN12colvarmodule8rotation21calc_optimal_rotationERKSt6vectorINS_4atomESaIS2_EERKS1_INS_7rvectorESaIS7_EE(ptr noundef nonnull align 8 dereferenceable(568) initializes((0, 72)) %0, ptr noundef nonnull align 8 dereferenceable(24) %1, ptr noundef nonnull align 8 dereferenceable(24) %2) local_unnamed_addr #0 align 2 {
  tail call void @llvm.memset.p0.i64(ptr noundef nonnull align 8 dereferenceable(72) %0, i8 0, i64 72, i1 false)
  %4 = getelementptr inbounds nuw i8, ptr %1, i64 8
  %5 = load ptr, ptr %4, align 8, !tbaa !87
  %6 = load ptr, ptr %1, align 8, !tbaa !90
  %.not.i = icmp eq ptr %5, %6
  br i1 %.not.i, label %_ZN12colvarmodule8rotation24build_correlation_matrixERKSt6vectorINS_4atomESaIS2_EERKS1_INS_7rvectorESaIS7_EE.exit, label %.lr.ph.i

.lr.ph.i:                                         ; preds = %3
  %7 = ptrtoint ptr %5 to i64
  %8 = ptrtoint ptr %6 to i64
  %9 = sub i64 %7, %8
  %10 = sdiv exact i64 %9, 120
  %11 = load ptr, ptr %2, align 8, !tbaa !75
  %12 = getelementptr inbounds nuw i8, ptr %0, i64 8
  %13 = getelementptr inbounds nuw i8, ptr %0, i64 16
  %14 = getelementptr inbounds nuw i8, ptr %0, i64 24
  %15 = getelementptr inbounds nuw i8, ptr %0, i64 32
  %16 = getelementptr inbounds nuw i8, ptr %0, i64 40
  %17 = getelementptr inbounds nuw i8, ptr %0, i64 48
  %18 = getelementptr inbounds nuw i8, ptr %0, i64 56
  %19 = getelementptr inbounds nuw i8, ptr %0, i64 64
  %umax.i = tail call i64 @llvm.umax.i64(i64 %10, i64 1)
  br label %20

20:                                               ; preds = %20, %.lr.ph.i
  %21 = phi double [ 0.000000e+00, %.lr.ph.i ], [ %51, %20 ]
  %22 = phi double [ 0.000000e+00, %.lr.ph.i ], [ %50, %20 ]
  %23 = phi double [ 0.000000e+00, %.lr.ph.i ], [ %49, %20 ]
  %24 = phi double [ 0.000000e+00, %.lr.ph.i ], [ %46, %20 ]
  %25 = phi double [ 0.000000e+00, %.lr.ph.i ], [ %45, %20 ]
  %26 = phi double [ 0.000000e+00, %.lr.ph.i ], [ %44, %20 ]
  %27 = phi double [ 0.000000e+00, %.lr.ph.i ], [ %41, %20 ]
  %28 = phi double [ 0.000000e+00, %.lr.ph.i ], [ %38, %20 ]
  %.039.i = phi i64 [ 0, %.lr.ph.i ], [ %52, %20 ]
  %29 = phi double [ 0.000000e+00, %.lr.ph.i ], [ %35, %20 ]
  %30 = getelementptr inbounds nuw %"class.colvarmodule::atom", ptr %6, i64 %.039.i
  %31 = getelementptr inbounds nuw i8, ptr %30, i64 24
  %32 = load double, ptr %31, align 8, !tbaa !91
  %33 = getelementptr inbounds nuw %"class.colvarmodule::rvector", ptr %11, i64 %.039.i
  %34 = load double, ptr %33, align 8, !tbaa !23
  %35 = tail call double @llvm.fmuladd.f64(double %32, double %34, double %29)
  %36 = getelementptr inbounds nuw i8, ptr %33, i64 8
  %37 = load double, ptr %36, align 8, !tbaa !26
  %38 = tail call double @llvm.fmuladd.f64(double %32, double %37, double %28)
  %39 = getelementptr inbounds nuw i8, ptr %33, i64 16
  %40 = load double, ptr %39, align 8, !tbaa !27
  %41 = tail call double @llvm.fmuladd.f64(double %32, double %40, double %27)
  %42 = getelementptr inbounds nuw i8, ptr %30, i64 32
  %43 = load double, ptr %42, align 8, !tbaa !93
  %44 = tail call double @llvm.fmuladd.f64(double %43, double %34, double %26)
  %45 = tail call double @llvm.fmuladd.f64(double %43, double %37, double %25)
  %46 = tail call double @llvm.fmuladd.f64(double %43, double %40, double %24)
  %47 = getelementptr inbounds nuw i8, ptr %30, i64 40
  %48 = load double, ptr %47, align 8, !tbaa !94
  %49 = tail call double @llvm.fmuladd.f64(double %48, double %34, double %23)
  %50 = tail call double @llvm.fmuladd.f64(double %48, double %37, double %22)
  %51 = tail call double @llvm.fmuladd.f64(double %48, double %40, double %21)
  %52 = add nuw i64 %.039.i, 1
  %exitcond.not.i = icmp eq i64 %52, %umax.i
  br i1 %exitcond.not.i, label %._crit_edge.i, label %20, !llvm.loop !95

._crit_edge.i:                                    ; preds = %20
  store double %35, ptr %0, align 8, !tbaa !86
  store double %38, ptr %12, align 8, !tbaa !76
  store double %41, ptr %13, align 8, !tbaa !77
  store double %44, ptr %14, align 8, !tbaa !78
  store double %45, ptr %15, align 8, !tbaa !79
  store double %46, ptr %16, align 8, !tbaa !80
  store double %49, ptr %17, align 8, !tbaa !81
  store double %50, ptr %18, align 8, !tbaa !82
  store double %51, ptr %19, align 8, !tbaa !83
  br label %_ZN12colvarmodule8rotation24build_correlation_matrixERKSt6vectorINS_4atomESaIS2_EERKS1_INS_7rvectorESaIS7_EE.exit

_ZN12colvarmodule8rotation24build_correlation_matrixERKSt6vectorINS_4atomESaIS2_EERKS1_INS_7rvectorESaIS7_EE.exit: ; preds = %3, %._crit_edge.i
  tail call void @_ZN12colvarmodule8rotation26calc_optimal_rotation_implEv(ptr noundef nonnull align 8 dereferenceable(568) %0)
  %53 = getelementptr inbounds nuw i8, ptr %0, i64 488
  %54 = load i8, ptr %53, align 8, !tbaa !61, !range !99, !noundef !100
  %55 = trunc nuw i8 %54 to i1
  br i1 %55, label %56, label %57

56:                                               ; preds = %_ZN12colvarmodule8rotation24build_correlation_matrixERKSt6vectorINS_4atomESaIS2_EERKS1_INS_7rvectorESaIS7_EE.exit
  tail call void @_Z15debug_gradientsIN12colvarmodule4atomENS0_7rvectorEEvRNS0_8rotationERKSt6vectorIT_SaIS6_EERKS5_IT0_SaISB_EE(ptr noundef nonnull align 8 dereferenceable(568) %0, ptr noundef nonnull align 8 dereferenceable(24) %1, ptr noundef nonnull align 8 dereferenceable(24) %2)
  br label %57

57:                                               ; preds = %56, %_ZN12colvarmodule8rotation24build_correlation_matrixERKSt6vectorINS_4atomESaIS2_EERKS1_INS_7rvectorESaIS7_EE.exit
  ret void
}